(dp0
S'show_imports'
p1
I1
sS'prj_name'
p2
S'Neural Simulation'
p3
sS'docformat'
p4
S'restructuredtext'
p5
sS'inheritance'
p6
S'grouped'
p7
sS'help'
p8
NsS'modules'
p9
(S'/home/phil/workspace/Neural-Simulation/debug_helpers.py'
p10
S'/home/phil/workspace/Neural-Simulation/nsim/__init__.py'
p11
S'/home/phil/workspace/Neural-Simulation/nsim/cluster_dynamics.py'
p12
S'/home/phil/workspace/Neural-Simulation/nsim/data_io/__init__.py'
p13
S'/home/phil/workspace/Neural-Simulation/nsim/data_io/client.py'
p14
S'/home/phil/workspace/Neural-Simulation/nsim/data_io/client_interface.py'
p15
S'/home/phil/workspace/Neural-Simulation/nsim/data_io/minimal_client.py'
p16
S'/home/phil/workspace/Neural-Simulation/nsim/data_io/package.py'
p17
S'/home/phil/workspace/Neural-Simulation/nsim/data_io/server.py'
p18
S'/home/phil/workspace/Neural-Simulation/nsim/gui/Ui_add_neuron.py'
p19
S'/home/phil/workspace/Neural-Simulation/nsim/gui/Ui_add_recorder.py'
p20
S'/home/phil/workspace/Neural-Simulation/nsim/gui/Ui_gui_main.py'
p21
S'/home/phil/workspace/Neural-Simulation/nsim/gui/Ui_init_dialog.py'
p22
S'/home/phil/workspace/Neural-Simulation/nsim/gui/Ui_multi_electrode_client.py'
p23
S'/home/phil/workspace/Neural-Simulation/nsim/gui/Ui_recorder_controll.py'
p24
S'/home/phil/workspace/Neural-Simulation/nsim/gui/Ui_scene_gen.py'
p25
S'/home/phil/workspace/Neural-Simulation/nsim/gui/__init__.py'
p26
S'/home/phil/workspace/Neural-Simulation/nsim/gui/plotting.py'
p27
S'/home/phil/workspace/Neural-Simulation/nsim/gui/res_rc.py'
p28
S'/home/phil/workspace/Neural-Simulation/nsim/math/__init__.py'
p29
S'/home/phil/workspace/Neural-Simulation/nsim/math/lerp.py'
p30
S'/home/phil/workspace/Neural-Simulation/nsim/math/math3d.py'
p31
S'/home/phil/workspace/Neural-Simulation/nsim/scene/__init__.py'
p32
S'/home/phil/workspace/Neural-Simulation/nsim/scene/neuron_data/__init__.py'
p33
S'/home/phil/workspace/Neural-Simulation/nsim/scene/neuron_data/nd_sampled.py'
p34
S'/home/phil/workspace/Neural-Simulation/nsim/scene/neuron_data/nd_waveform.py'
p35
S'/home/phil/workspace/Neural-Simulation/nsim/scene/neuron_data/neuron_data.py'
p36
S'/home/phil/workspace/Neural-Simulation/nsim/scene/noise/__init__.py'
p37
S'/home/phil/workspace/Neural-Simulation/nsim/scene/noise/ar_model.py'
p38
S'/home/phil/workspace/Neural-Simulation/nsim/scene/noise/noise_gen.py'
p39
S'/home/phil/workspace/Neural-Simulation/nsim/scene/recorder.py'
p40
S'/home/phil/workspace/Neural-Simulation/nsim/scene/sim_object.py'
p41
S'/home/phil/workspace/Neural-Simulation/nsim/scene_generator.py'
p42
S'/home/phil/workspace/Neural-Simulation/nsim/simulation.py'
p43
S'/home/phil/workspace/Neural-Simulation/start_client.py'
p44
S'/home/phil/workspace/Neural-Simulation/start_server.py'
p45
S'/home/phil/workspace/Neural-Simulation/nsim/scene/neuron.py'
p46
tp47
sS'private'
p48
I1
sS'prj_url'
p49
S'http://github.com/pmeier82/Neural-Simulation'
p50
sS'introspect_or_parse'
p51
S'both'
p52
sS'frames'
p53
I1
sS'css'
p54
S'default'
p55
sS'target'
p56
S'/home/phil/workspace/Neural-Simulation/doc'
p57
s.